target datalayout = "e-m:e-p270:32:32-p271:32:32-p272:64:64-i64:64-i128:128-f80:128-n8:16:32:64-S128"
target triple = "x86_64-pc-linux-gnu"

; Function Attrs: nounwind uwtable
define internal void @ac3_sum_square_butterfly_float_c(ptr noundef %0, ptr noundef %1, ptr noundef %2, i32 noundef %3) #0 {
  %5 = alloca ptr, align 8
  %6 = alloca ptr, align 8
  %7 = alloca ptr, align 8
  %8 = alloca i32, align 4
  %9 = alloca i32, align 4
  %10 = alloca float, align 4
  %11 = alloca float, align 4
  %12 = alloca float, align 4
  %13 = alloca float, align 4
  store ptr %0, ptr %5, align 8, !tbaa !38
  store ptr %1, ptr %6, align 8, !tbaa !38
  store ptr %2, ptr %7, align 8, !tbaa !38
  store i32 %3, ptr %8, align 4, !tbaa !14
  call void @llvm.lifetime.start.p0(i64 4, ptr %9) #6
  %14 = load ptr, ptr %5, align 8, !tbaa !38
  %15 = getelementptr inbounds float, ptr %14, i64 3
  store float 0.000000e+00, ptr %15, align 4, !tbaa !40
  %16 = load ptr, ptr %5, align 8, !tbaa !38
  %17 = getelementptr inbounds float, ptr %16, i64 2
  store float 0.000000e+00, ptr %17, align 4, !tbaa !40
  %18 = load ptr, ptr %5, align 8, !tbaa !38
  %19 = getelementptr inbounds float, ptr %18, i64 1
  store float 0.000000e+00, ptr %19, align 4, !tbaa !40
  %20 = load ptr, ptr %5, align 8, !tbaa !38
  %21 = getelementptr inbounds float, ptr %20, i64 0
  store float 0.000000e+00, ptr %21, align 4, !tbaa !40
  store i32 0, ptr %9, align 4, !tbaa !14
  br label %22

22:                                               ; preds = %67, %4
  %23 = load i32, ptr %9, align 4, !tbaa !14
  %24 = load i32, ptr %8, align 4, !tbaa !14
  %25 = icmp slt i32 %23, %24
  br i1 %25, label %26, label %70

26:                                               ; preds = %22
  call void @llvm.lifetime.start.p0(i64 4, ptr %10) #6
  %27 = load ptr, ptr %6, align 8, !tbaa !38
  %28 = load i32, ptr %9, align 4, !tbaa !14
  %29 = sext i32 %28 to i64
  %30 = getelementptr inbounds float, ptr %27, i64 %29
  %31 = load float, ptr %30, align 4, !tbaa !40
  store float %31, ptr %10, align 4, !tbaa !40
  call void @llvm.lifetime.start.p0(i64 4, ptr %11) #6
  %32 = load ptr, ptr %7, align 8, !tbaa !38
  %33 = load i32, ptr %9, align 4, !tbaa !14
  %34 = sext i32 %33 to i64
  %35 = getelementptr inbounds float, ptr %32, i64 %34
  %36 = load float, ptr %35, align 4, !tbaa !40
  store float %36, ptr %11, align 4, !tbaa !40
  call void @llvm.lifetime.start.p0(i64 4, ptr %12) #6
  %37 = load float, ptr %10, align 4, !tbaa !40
  %38 = load float, ptr %11, align 4, !tbaa !40
  %39 = fadd nsz float %37, %38
  store float %39, ptr %12, align 4, !tbaa !40
  call void @llvm.lifetime.start.p0(i64 4, ptr %13) #6
  %40 = load float, ptr %10, align 4, !tbaa !40
  %41 = load float, ptr %11, align 4, !tbaa !40
  %42 = fsub nsz float %40, %41
  store float %42, ptr %13, align 4, !tbaa !40
  %43 = load float, ptr %10, align 4, !tbaa !40
  %44 = load float, ptr %10, align 4, !tbaa !40
  %45 = load ptr, ptr %5, align 8, !tbaa !38
  %46 = getelementptr inbounds float, ptr %45, i64 0
  %47 = load float, ptr %46, align 4, !tbaa !40
  %48 = call nsz float @llvm.fmuladd.f32(float %43, float %44, float %47)
  store float %48, ptr %46, align 4, !tbaa !40
  %49 = load float, ptr %11, align 4, !tbaa !40
  %50 = load float, ptr %11, align 4, !tbaa !40
  %51 = load ptr, ptr %5, align 8, !tbaa !38
  %52 = getelementptr inbounds float, ptr %51, i64 1
  %53 = load float, ptr %52, align 4, !tbaa !40
  %54 = call nsz float @llvm.fmuladd.f32(float %49, float %50, float %53)
  store float %54, ptr %52, align 4, !tbaa !40
  %55 = load float, ptr %12, align 4, !tbaa !40
  %56 = load float, ptr %12, align 4, !tbaa !40
  %57 = load ptr, ptr %5, align 8, !tbaa !38
  %58 = getelementptr inbounds float, ptr %57, i64 2
  %59 = load float, ptr %58, align 4, !tbaa !40
  %60 = call nsz float @llvm.fmuladd.f32(float %55, float %56, float %59)
  store float %60, ptr %58, align 4, !tbaa !40
  %61 = load float, ptr %13, align 4, !tbaa !40
  %62 = load float, ptr %13, align 4, !tbaa !40
  %63 = load ptr, ptr %5, align 8, !tbaa !38
  %64 = getelementptr inbounds float, ptr %63, i64 3
  %65 = load float, ptr %64, align 4, !tbaa !40
  %66 = call nsz float @llvm.fmuladd.f32(float %61, float %62, float %65)
  store float %66, ptr %64, align 4, !tbaa !40
  call void @llvm.lifetime.end.p0(i64 4, ptr %13) #6
  call void @llvm.lifetime.end.p0(i64 4, ptr %12) #6
  call void @llvm.lifetime.end.p0(i64 4, ptr %11) #6
  call void @llvm.lifetime.end.p0(i64 4, ptr %10) #6
  br label %67

67:                                               ; preds = %26
  %68 = load i32, ptr %9, align 4, !tbaa !14
  %69 = add nsw i32 %68, 1
  store i32 %69, ptr %9, align 4, !tbaa !14
  br label %22, !llvm.loop !71

70:                                               ; preds = %22
  call void @llvm.lifetime.end.p0(i64 4, ptr %9) #6
  ret void
}