; Function Attrs: nofree norecurse nosync nounwind memory(argmem: readwrite) uwtable
define internal void @ac3_sum_square_butterfly_float_c(ptr noundef writeonly captures(none) initializes((0, 16)) %0, ptr noundef readonly captures(none) %1, ptr noundef readonly captures(none) %2, i32 noundef %3) #3 {
  %5 = getelementptr inbounds nuw i8, ptr %0, i64 12
  %6 = getelementptr inbounds nuw i8, ptr %0, i64 8
  %7 = getelementptr inbounds nuw i8, ptr %0, i64 4
  %8 = icmp sgt i32 %3, 0
  tail call void @llvm.memset.p0.i64(ptr noundef nonnull align 4 dereferenceable(16) %0, i8 0, i64 16, i1 false)
  br i1 %8, label %.lr.ph, label %._crit_edge

.lr.ph:                                           ; preds = %4
  %wide.trip.count = zext nneg i32 %3 to i64
  br label %9

9:                                                ; preds = %.lr.ph, %9
  %indvars.iv = phi i64 [ 0, %.lr.ph ], [ %indvars.iv.next, %9 ]
  %10 = phi float [ 0.000000e+00, %.lr.ph ], [ %23, %9 ]
  %11 = phi float [ 0.000000e+00, %.lr.ph ], [ %22, %9 ]
  %12 = phi float [ 0.000000e+00, %.lr.ph ], [ %21, %9 ]
  %13 = phi float [ 0.000000e+00, %.lr.ph ], [ %20, %9 ]
  %14 = getelementptr inbounds nuw float, ptr %1, i64 %indvars.iv
  %15 = load float, ptr %14, align 4, !tbaa !29
  %16 = getelementptr inbounds nuw float, ptr %2, i64 %indvars.iv
  %17 = load float, ptr %16, align 4, !tbaa !29
  %18 = fadd nsz float %15, %17
  %19 = fsub nsz float %15, %17
  %20 = tail call nsz float @llvm.fmuladd.f32(float %15, float %15, float %13)
  store float %20, ptr %0, align 4, !tbaa !29
  %21 = tail call nsz float @llvm.fmuladd.f32(float %17, float %17, float %12)
  store float %21, ptr %7, align 4, !tbaa !29
  %22 = tail call nsz float @llvm.fmuladd.f32(float %18, float %18, float %11)
  store float %22, ptr %6, align 4, !tbaa !29
  %23 = tail call nsz float @llvm.fmuladd.f32(float %19, float %19, float %10)
  store float %23, ptr %5, align 4, !tbaa !29
  %indvars.iv.next = add nuw nsw i64 %indvars.iv, 1
  %exitcond.not = icmp eq i64 %indvars.iv.next, %wide.trip.count
  br i1 %exitcond.not, label %._crit_edge, label %9, !llvm.loop !58

._crit_edge:                                      ; preds = %9, %4
  ret void
}